target datalayout = "e-m:e-p270:32:32-p271:32:32-p272:64:64-i64:64-i128:128-f80:128-n8:16:32:64-S128"
target triple = "x86_64-pc-linux-gnu"

%struct.GCRef = type { i64 }
%struct.IRType1 = type { i8 }
%union.IRIns = type { %struct.GCRef }
%struct.ASMState = type { [32 x i32], ptr, ptr, ptr, ptr, %struct.x86ModRM, i32, i32, i32, i32, i32, i32, i32, i32, i32, i32, i32, i32, i32, i32, i32, i32, i64, i64, i32, i32, i32, i32, i32, ptr, ptr, ptr, ptr, ptr, ptr, ptr, ptr, ptr, [32 x i16], [250 x i16] }
%struct.x86ModRM = type { i32, i8, i8, i8 }
%struct.anon.0 = type { i32, %struct.IRType1, i8, i8, i8 }
%struct.anon = type { i16, i16, i16, i16 }

; Function Attrs: nounwind uwtable
define internal i32 @noconflict(ptr noundef %0, i32 noundef %1, i32 noundef %2, i32 noundef %3) #0 {
  %5 = alloca i32, align 4
  %6 = alloca ptr, align 8
  %7 = alloca i32, align 4
  %8 = alloca i32, align 4
  %9 = alloca i32, align 4
  %10 = alloca ptr, align 8
  %11 = alloca i32, align 4
  %12 = alloca i32, align 4
  store ptr %0, ptr %6, align 8, !tbaa !33
  store i32 %1, ptr %7, align 4, !tbaa !11
  store i32 %2, ptr %8, align 4, !tbaa !11
  store i32 %3, ptr %9, align 4, !tbaa !11
  call void @llvm.lifetime.start.p0(i64 8, ptr %10) #11
  %13 = load ptr, ptr %6, align 8, !tbaa !33
  %14 = getelementptr inbounds nuw %struct.ASMState, ptr %13, i32 0, i32 3
  %15 = load ptr, ptr %14, align 8, !tbaa !70
  store ptr %15, ptr %10, align 8, !tbaa !37
  call void @llvm.lifetime.start.p0(i64 4, ptr %11) #11
  %16 = load ptr, ptr %6, align 8, !tbaa !33
  %17 = getelementptr inbounds nuw %struct.ASMState, ptr %16, i32 0, i32 14
  %18 = load i32, ptr %17, align 8, !tbaa !72
  store i32 %18, ptr %11, align 4, !tbaa !11
  %19 = load i32, ptr %11, align 4, !tbaa !11
  %20 = load i32, ptr %7, align 4, !tbaa !11
  %21 = add i32 %20, 31
  %22 = icmp ugt i32 %19, %21
  br i1 %22, label %23, label %24

23:                                               ; preds = %4
  store i32 0, ptr %5, align 4
  store i32 1, ptr %12, align 4
  br label %93

24:                                               ; preds = %4
  br label %25

25:                                               ; preds = %91, %24
  %26 = load i32, ptr %11, align 4, !tbaa !11
  %27 = add i32 %26, -1
  store i32 %27, ptr %11, align 4, !tbaa !11
  %28 = load i32, ptr %7, align 4, !tbaa !11
  %29 = icmp ugt i32 %27, %28
  br i1 %29, label %30, label %92

30:                                               ; preds = %25
  %31 = load ptr, ptr %10, align 8, !tbaa !37
  %32 = load i32, ptr %11, align 4, !tbaa !11
  %33 = zext i32 %32 to i64
  %34 = getelementptr inbounds nuw %union.IRIns, ptr %31, i64 %33
  %35 = getelementptr inbounds nuw %struct.anon.0, ptr %34, i32 0, i32 2
  %36 = load i8, ptr %35, align 1, !tbaa !25
  %37 = zext i8 %36 to i32
  %38 = load i32, ptr %8, align 4, !tbaa !11
  %39 = icmp eq i32 %37, %38
  br i1 %39, label %40, label %41

40:                                               ; preds = %30
  store i32 0, ptr %5, align 4
  store i32 1, ptr %12, align 4
  br label %93

41:                                               ; preds = %30
  %42 = load i32, ptr %9, align 4, !tbaa !11
  %43 = and i32 %42, 1
  %44 = icmp ne i32 %43, 0
  br i1 %44, label %45, label %64

45:                                               ; preds = %41
  %46 = load ptr, ptr %10, align 8, !tbaa !37
  %47 = load i32, ptr %11, align 4, !tbaa !11
  %48 = zext i32 %47 to i64
  %49 = getelementptr inbounds nuw %union.IRIns, ptr %46, i64 %48
  %50 = getelementptr inbounds nuw %struct.anon.0, ptr %49, i32 0, i32 2
  %51 = load i8, ptr %50, align 1, !tbaa !25
  %52 = zext i8 %51 to i32
  %53 = icmp eq i32 %52, 59
  br i1 %53, label %63, label %54

54:                                               ; preds = %45
  %55 = load ptr, ptr %10, align 8, !tbaa !37
  %56 = load i32, ptr %11, align 4, !tbaa !11
  %57 = zext i32 %56 to i64
  %58 = getelementptr inbounds nuw %union.IRIns, ptr %55, i64 %57
  %59 = getelementptr inbounds nuw %struct.anon.0, ptr %58, i32 0, i32 2
  %60 = load i8, ptr %59, align 1, !tbaa !25
  %61 = zext i8 %60 to i32
  %62 = icmp eq i32 %61, 98
  br i1 %62, label %63, label %64

63:                                               ; preds = %54, %45
  store i32 0, ptr %5, align 4
  store i32 1, ptr %12, align 4
  br label %93

64:                                               ; preds = %54, %41
  %65 = load i32, ptr %9, align 4, !tbaa !11
  %66 = and i32 %65, 2
  %67 = icmp ne i32 %66, 0
  br i1 %67, label %68, label %89

68:                                               ; preds = %64
  %69 = load ptr, ptr %10, align 8, !tbaa !37
  %70 = load i32, ptr %11, align 4, !tbaa !11
  %71 = zext i32 %70 to i64
  %72 = getelementptr inbounds nuw %union.IRIns, ptr %69, i64 %71
  %73 = getelementptr inbounds nuw %struct.anon, ptr %72, i32 0, i32 0
  %74 = load i16, ptr %73, align 8, !tbaa !25
  %75 = zext i16 %74 to i32
  %76 = load i32, ptr %7, align 4, !tbaa !11
  %77 = icmp eq i32 %75, %76
  br i1 %77, label %88, label %78

78:                                               ; preds = %68
  %79 = load ptr, ptr %10, align 8, !tbaa !37
  %80 = load i32, ptr %11, align 4, !tbaa !11
  %81 = zext i32 %80 to i64
  %82 = getelementptr inbounds nuw %union.IRIns, ptr %79, i64 %81
  %83 = getelementptr inbounds nuw %struct.anon, ptr %82, i32 0, i32 1
  %84 = load i16, ptr %83, align 2, !tbaa !25
  %85 = zext i16 %84 to i32
  %86 = load i32, ptr %7, align 4, !tbaa !11
  %87 = icmp eq i32 %85, %86
  br i1 %87, label %88, label %89

88:                                               ; preds = %78, %68
  store i32 0, ptr %5, align 4
  store i32 1, ptr %12, align 4
  br label %93

89:                                               ; preds = %78, %64
  br label %90

90:                                               ; preds = %89
  br label %91

91:                                               ; preds = %90
  br label %25, !llvm.loop !205

92:                                               ; preds = %25
  store i32 1, ptr %5, align 4
  store i32 1, ptr %12, align 4
  br label %93

93:                                               ; preds = %92, %88, %63, %40, %23
  call void @llvm.lifetime.end.p0(i64 4, ptr %11) #11
  call void @llvm.lifetime.end.p0(i64 8, ptr %10) #11
  %94 = load i32, ptr %5, align 4
  ret i32 %94
}

; Function Attrs: nounwind uwtable
define internal i32 @ra_alloc1(ptr noundef %0, i32 noundef %1, i32 noundef %2) #0 {
  %4 = alloca ptr, align 8
  %5 = alloca i32, align 4
  %6 = alloca i32, align 4
  %7 = alloca i32, align 4
  store ptr %0, ptr %4, align 8, !tbaa !33
  store i32 %1, ptr %5, align 4, !tbaa !11
  store i32 %2, ptr %6, align 4, !tbaa !11
  call void @llvm.lifetime.start.p0(i64 4, ptr %7) #11
  %8 = load ptr, ptr %4, align 8, !tbaa !33
  %9 = getelementptr inbounds nuw %struct.ASMState, ptr %8, i32 0, i32 3
  %10 = load ptr, ptr %9, align 8, !tbaa !70
  %11 = load i32, ptr %5, align 4, !tbaa !11
  %12 = zext i32 %11 to i64
  %13 = getelementptr inbounds nuw %union.IRIns, ptr %10, i64 %12
  %14 = getelementptr inbounds nuw %struct.anon.0, ptr %13, i32 0, i32 3
  %15 = load i8, ptr %14, align 2, !tbaa !25
  %16 = zext i8 %15 to i32
  store i32 %16, ptr %7, align 4, !tbaa !11
  %17 = load i32, ptr %7, align 4, !tbaa !11
  %18 = and i32 %17, 128
  %19 = icmp ne i32 %18, 0
  br i1 %19, label %20, label %25

20:                                               ; preds = %3
  %21 = load ptr, ptr %4, align 8, !tbaa !33
  %22 = load i32, ptr %5, align 4, !tbaa !11
  %23 = load i32, ptr %6, align 4, !tbaa !11
  %24 = call i32 @ra_allocref(ptr noundef %21, i32 noundef %22, i32 noundef %23)
  store i32 %24, ptr %7, align 4, !tbaa !11
  br label %25

25:                                               ; preds = %20, %3
  %26 = load i32, ptr %7, align 4, !tbaa !11
  %27 = shl i32 1, %26
  %28 = xor i32 %27, -1
  %29 = load ptr, ptr %4, align 8, !tbaa !33
  %30 = getelementptr inbounds nuw %struct.ASMState, ptr %29, i32 0, i32 8
  %31 = load i32, ptr %30, align 8, !tbaa !140
  %32 = and i32 %31, %28
  store i32 %32, ptr %30, align 8, !tbaa !140
  %33 = load i32, ptr %7, align 4, !tbaa !11
  call void @llvm.lifetime.end.p0(i64 4, ptr %7) #11
  ret i32 %33
}

; Function Attrs: nounwind uwtable
define internal i32 @asm_fuseabase(ptr noundef %0, i32 noundef %1) #0 {
  %3 = alloca i32, align 4
  %4 = alloca ptr, align 8
  %5 = alloca i32, align 4
  %6 = alloca ptr, align 8
  %7 = alloca ptr, align 8
  %8 = alloca i32, align 4
  %9 = alloca ptr, align 8
  store ptr %0, ptr %4, align 8, !tbaa !33
  store i32 %1, ptr %5, align 4, !tbaa !11
  call void @llvm.lifetime.start.p0(i64 8, ptr %6) #11
  %10 = load ptr, ptr %4, align 8, !tbaa !33
  %11 = getelementptr inbounds nuw %struct.ASMState, ptr %10, i32 0, i32 3
  %12 = load ptr, ptr %11, align 8, !tbaa !70
  %13 = load i32, ptr %5, align 4, !tbaa !11
  %14 = zext i32 %13 to i64
  %15 = getelementptr inbounds nuw %union.IRIns, ptr %12, i64 %14
  store ptr %15, ptr %6, align 8, !tbaa !37
  %16 = load ptr, ptr %4, align 8, !tbaa !33
  %17 = getelementptr inbounds nuw %struct.ASMState, ptr %16, i32 0, i32 5
  %18 = getelementptr inbounds nuw %struct.x86ModRM, ptr %17, i32 0, i32 0
  store i32 0, ptr %18, align 8, !tbaa !184
  %19 = load ptr, ptr %6, align 8, !tbaa !37
  %20 = getelementptr inbounds nuw %struct.anon.0, ptr %19, i32 0, i32 2
  %21 = load i8, ptr %20, align 1, !tbaa !25
  %22 = zext i8 %21 to i32
  %23 = icmp eq i32 %22, 69
  br i1 %23, label %24, label %69

24:                                               ; preds = %2
  call void @llvm.lifetime.start.p0(i64 8, ptr %7) #11
  %25 = load ptr, ptr %4, align 8, !tbaa !33
  %26 = getelementptr inbounds nuw %struct.ASMState, ptr %25, i32 0, i32 3
  %27 = load ptr, ptr %26, align 8, !tbaa !70
  %28 = load ptr, ptr %6, align 8, !tbaa !37
  %29 = getelementptr inbounds nuw %struct.anon, ptr %28, i32 0, i32 0
  %30 = load i16, ptr %29, align 8, !tbaa !25
  %31 = zext i16 %30 to i64
  %32 = getelementptr inbounds nuw %union.IRIns, ptr %27, i64 %31
  store ptr %32, ptr %7, align 8, !tbaa !37
  %33 = load ptr, ptr %7, align 8, !tbaa !37
  %34 = getelementptr inbounds nuw %struct.anon.0, ptr %33, i32 0, i32 2
  %35 = load i8, ptr %34, align 1, !tbaa !25
  %36 = zext i8 %35 to i32
  %37 = icmp eq i32 %36, 81
  br i1 %37, label %38, label %65

38:                                               ; preds = %24
  %39 = load ptr, ptr %7, align 8, !tbaa !37
  %40 = getelementptr inbounds nuw %struct.anon, ptr %39, i32 0, i32 0
  %41 = load i16, ptr %40, align 8, !tbaa !25
  %42 = zext i16 %41 to i32
  %43 = icmp sle i32 %42, 16
  br i1 %43, label %44, label %65

44:                                               ; preds = %38
  %45 = load ptr, ptr %4, align 8, !tbaa !33
  %46 = getelementptr inbounds nuw %struct.ASMState, ptr %45, i32 0, i32 24
  %47 = load i32, ptr %46, align 8, !tbaa !78
  %48 = icmp eq i32 %47, -1
  br i1 %48, label %65, label %49

49:                                               ; preds = %44
  %50 = load ptr, ptr %4, align 8, !tbaa !33
  %51 = load ptr, ptr %6, align 8, !tbaa !37
  %52 = getelementptr inbounds nuw %struct.anon, ptr %51, i32 0, i32 0
  %53 = load i16, ptr %52, align 8, !tbaa !25
  %54 = zext i16 %53 to i32
  %55 = call i32 @noconflict(ptr noundef %50, i32 noundef %54, i32 noundef 59, i32 noundef 0)
  %56 = icmp ne i32 %55, 0
  br i1 %56, label %57, label %65

57:                                               ; preds = %49
  %58 = load ptr, ptr %4, align 8, !tbaa !33
  %59 = getelementptr inbounds nuw %struct.ASMState, ptr %58, i32 0, i32 5
  %60 = getelementptr inbounds nuw %struct.x86ModRM, ptr %59, i32 0, i32 0
  store i32 64, ptr %60, align 8, !tbaa !184
  %61 = load ptr, ptr %6, align 8, !tbaa !37
  %62 = getelementptr inbounds nuw %struct.anon, ptr %61, i32 0, i32 0
  %63 = load i16, ptr %62, align 8, !tbaa !25
  %64 = zext i16 %63 to i32
  store i32 %64, ptr %3, align 4
  store i32 1, ptr %8, align 4
  br label %66

65:                                               ; preds = %49, %44, %38, %24
  store i32 0, ptr %8, align 4
  br label %66

66:                                               ; preds = %65, %57
  call void @llvm.lifetime.end.p0(i64 8, ptr %7) #11
  %67 = load i32, ptr %8, align 4
  switch i32 %67, label %115 [
    i32 0, label %68
  ]

68:                                               ; preds = %66
  br label %113

69:                                               ; preds = %2
  %70 = load ptr, ptr %6, align 8, !tbaa !37
  %71 = getelementptr inbounds nuw %struct.anon.0, ptr %70, i32 0, i32 2
  %72 = load i8, ptr %71, align 1, !tbaa !25
  %73 = zext i8 %72 to i32
  %74 = icmp eq i32 %73, 41
  br i1 %74, label %75, label %112

75:                                               ; preds = %69
  %76 = load ptr, ptr %6, align 8, !tbaa !37
  %77 = getelementptr inbounds nuw %struct.anon, ptr %76, i32 0, i32 1
  %78 = load i16, ptr %77, align 2, !tbaa !25
  %79 = zext i16 %78 to i32
  %80 = icmp slt i32 %79, 32768
  br i1 %80, label %81, label %112

81:                                               ; preds = %75
  call void @llvm.lifetime.start.p0(i64 8, ptr %9) #11
  %82 = load ptr, ptr %4, align 8, !tbaa !33
  %83 = getelementptr inbounds nuw %struct.ASMState, ptr %82, i32 0, i32 3
  %84 = load ptr, ptr %83, align 8, !tbaa !70
  %85 = load ptr, ptr %6, align 8, !tbaa !37
  %86 = getelementptr inbounds nuw %struct.anon, ptr %85, i32 0, i32 1
  %87 = load i16, ptr %86, align 2, !tbaa !25
  %88 = zext i16 %87 to i64
  %89 = getelementptr inbounds nuw %union.IRIns, ptr %84, i64 %88
  store ptr %89, ptr %9, align 8, !tbaa !37
  %90 = load ptr, ptr %9, align 8, !tbaa !37
  %91 = getelementptr inbounds nuw %struct.anon.0, ptr %90, i32 0, i32 2
  %92 = load i8, ptr %91, align 1, !tbaa !25
  %93 = zext i8 %92 to i32
  %94 = icmp eq i32 %93, 23
  br i1 %94, label %95, label %98

95:                                               ; preds = %81
  %96 = load ptr, ptr %9, align 8, !tbaa !37
  %97 = load i32, ptr %96, align 8, !tbaa !25
  br label %103

98:                                               ; preds = %81
  %99 = load ptr, ptr %9, align 8, !tbaa !37
  %100 = getelementptr inbounds %union.IRIns, ptr %99, i64 1
  %101 = load i64, ptr %100, align 8, !tbaa !25
  %102 = trunc i64 %101 to i32
  br label %103

103:                                              ; preds = %98, %95
  %104 = phi i32 [ %97, %95 ], [ %102, %98 ]
  %105 = load ptr, ptr %4, align 8, !tbaa !33
  %106 = getelementptr inbounds nuw %struct.ASMState, ptr %105, i32 0, i32 5
  %107 = getelementptr inbounds nuw %struct.x86ModRM, ptr %106, i32 0, i32 0
  store i32 %104, ptr %107, align 8, !tbaa !184
  %108 = load ptr, ptr %6, align 8, !tbaa !37
  %109 = getelementptr inbounds nuw %struct.anon, ptr %108, i32 0, i32 0
  %110 = load i16, ptr %109, align 8, !tbaa !25
  %111 = zext i16 %110 to i32
  store i32 %111, ptr %3, align 4
  store i32 1, ptr %8, align 4
  call void @llvm.lifetime.end.p0(i64 8, ptr %9) #11
  br label %115

112:                                              ; preds = %75, %69
  br label %113

113:                                              ; preds = %112, %68
  %114 = load i32, ptr %5, align 4, !tbaa !11
  store i32 %114, ptr %3, align 4
  store i32 1, ptr %8, align 4
  br label %115

115:                                              ; preds = %113, %103, %66
  call void @llvm.lifetime.end.p0(i64 8, ptr %6) #11
  %116 = load i32, ptr %3, align 4
  ret i32 %116
}

; Function Attrs: nounwind uwtable
define internal void @asm_fusearef(ptr noundef %0, ptr noundef %1, i32 noundef %2) #0 {
  %4 = alloca ptr, align 8
  %5 = alloca ptr, align 8
  %6 = alloca i32, align 4
  %7 = alloca ptr, align 8
  store ptr %0, ptr %4, align 8, !tbaa !33
  store ptr %1, ptr %5, align 8, !tbaa !37
  store i32 %2, ptr %6, align 4, !tbaa !11
  call void @llvm.lifetime.start.p0(i64 8, ptr %7) #11
  %8 = load ptr, ptr %4, align 8, !tbaa !33
  %9 = load ptr, ptr %4, align 8, !tbaa !33
  %10 = load ptr, ptr %5, align 8, !tbaa !37
  %11 = getelementptr inbounds nuw %struct.anon, ptr %10, i32 0, i32 0
  %12 = load i16, ptr %11, align 8, !tbaa !25
  %13 = zext i16 %12 to i32
  %14 = call i32 @asm_fuseabase(ptr noundef %9, i32 noundef %13)
  %15 = load i32, ptr %6, align 4, !tbaa !11
  %16 = call i32 @ra_alloc1(ptr noundef %8, i32 noundef %14, i32 noundef %15)
  %17 = trunc i32 %16 to i8
  %18 = load ptr, ptr %4, align 8, !tbaa !33
  %19 = getelementptr inbounds nuw %struct.ASMState, ptr %18, i32 0, i32 5
  %20 = getelementptr inbounds nuw %struct.x86ModRM, ptr %19, i32 0, i32 1
  store i8 %17, ptr %20, align 4, !tbaa !89
  %21 = load ptr, ptr %4, align 8, !tbaa !33
  %22 = getelementptr inbounds nuw %struct.ASMState, ptr %21, i32 0, i32 3
  %23 = load ptr, ptr %22, align 8, !tbaa !70
  %24 = load ptr, ptr %5, align 8, !tbaa !37
  %25 = getelementptr inbounds nuw %struct.anon, ptr %24, i32 0, i32 1
  %26 = load i16, ptr %25, align 2, !tbaa !25
  %27 = zext i16 %26 to i64
  %28 = getelementptr inbounds nuw %union.IRIns, ptr %23, i64 %27
  store ptr %28, ptr %7, align 8, !tbaa !37
  %29 = load ptr, ptr %5, align 8, !tbaa !37
  %30 = getelementptr inbounds nuw %struct.anon, ptr %29, i32 0, i32 1
  %31 = load i16, ptr %30, align 2, !tbaa !25
  %32 = zext i16 %31 to i32
  %33 = icmp slt i32 %32, 32768
  br i1 %33, label %34, label %46

34:                                               ; preds = %3
  %35 = load ptr, ptr %7, align 8, !tbaa !37
  %36 = load i32, ptr %35, align 8, !tbaa !25
  %37 = mul nsw i32 8, %36
  %38 = load ptr, ptr %4, align 8, !tbaa !33
  %39 = getelementptr inbounds nuw %struct.ASMState, ptr %38, i32 0, i32 5
  %40 = getelementptr inbounds nuw %struct.x86ModRM, ptr %39, i32 0, i32 0
  %41 = load i32, ptr %40, align 8, !tbaa !184
  %42 = add nsw i32 %41, %37
  store i32 %42, ptr %40, align 8, !tbaa !184
  %43 = load ptr, ptr %4, align 8, !tbaa !33
  %44 = getelementptr inbounds nuw %struct.ASMState, ptr %43, i32 0, i32 5
  %45 = getelementptr inbounds nuw %struct.x86ModRM, ptr %44, i32 0, i32 2
  store i8 -128, ptr %45, align 1, !tbaa !183
  br label %70

46:                                               ; preds = %3
  %47 = load ptr, ptr %4, align 8, !tbaa !33
  %48 = getelementptr inbounds nuw %struct.ASMState, ptr %47, i32 0, i32 5
  %49 = getelementptr inbounds nuw %struct.x86ModRM, ptr %48, i32 0, i32 1
  %50 = load i8, ptr %49, align 4, !tbaa !89
  %51 = zext i8 %50 to i32
  %52 = shl i32 1, %51
  %53 = xor i32 %52, -1
  %54 = load i32, ptr %6, align 4, !tbaa !11
  %55 = and i32 %54, %53
  store i32 %55, ptr %6, align 4, !tbaa !11
  %56 = load ptr, ptr %4, align 8, !tbaa !33
  %57 = getelementptr inbounds nuw %struct.ASMState, ptr %56, i32 0, i32 5
  %58 = getelementptr inbounds nuw %struct.x86ModRM, ptr %57, i32 0, i32 3
  store i8 -64, ptr %58, align 2, !tbaa !203
  %59 = load ptr, ptr %4, align 8, !tbaa !33
  %60 = load ptr, ptr %5, align 8, !tbaa !37
  %61 = getelementptr inbounds nuw %struct.anon, ptr %60, i32 0, i32 1
  %62 = load i16, ptr %61, align 2, !tbaa !25
  %63 = zext i16 %62 to i32
  %64 = load i32, ptr %6, align 4, !tbaa !11
  %65 = call i32 @ra_alloc1(ptr noundef %59, i32 noundef %63, i32 noundef %64)
  %66 = trunc i32 %65 to i8
  %67 = load ptr, ptr %4, align 8, !tbaa !33
  %68 = getelementptr inbounds nuw %struct.ASMState, ptr %67, i32 0, i32 5
  %69 = getelementptr inbounds nuw %struct.x86ModRM, ptr %68, i32 0, i32 2
  store i8 %66, ptr %69, align 1, !tbaa !183
  br label %70

70:                                               ; preds = %46, %34
  call void @llvm.lifetime.end.p0(i64 8, ptr %7) #11
  ret void
}