; Function Attrs: nounwind uwtable
define internal fastcc void @asm_fusearef(ptr noundef nonnull captures(none) initializes((160, 164)) %0, ptr noundef readonly captures(none) %1, i32 noundef %2) unnamed_addr #0 {
  %4 = load i16, ptr %1, align 8, !tbaa !20
  %5 = getelementptr inbounds nuw i8, ptr %0, i64 144
  %6 = load ptr, ptr %5, align 8, !tbaa !68
  %7 = zext i16 %4 to i64
  %8 = getelementptr inbounds nuw %union.IRIns, ptr %6, i64 %7
  %9 = getelementptr inbounds nuw i8, ptr %0, i64 160
  store i32 0, ptr %9, align 8, !tbaa !131
  %10 = getelementptr inbounds nuw i8, ptr %8, i64 5
  %11 = load i8, ptr %10, align 1, !tbaa !20
  switch i8 %11, label %asm_fuseabase.exit [
    i8 69, label %12
    i8 41, label %40
  ]

12:                                               ; preds = %3
  %13 = load i16, ptr %8, align 8, !tbaa !20
  %14 = zext i16 %13 to i64
  %15 = getelementptr inbounds nuw %union.IRIns, ptr %6, i64 %14
  %16 = getelementptr inbounds nuw i8, ptr %15, i64 5
  %17 = load i8, ptr %16, align 1, !tbaa !20
  %18 = icmp eq i8 %17, 81
  br i1 %18, label %19, label %asm_fuseabase.exit

19:                                               ; preds = %12
  %20 = load i16, ptr %15, align 8, !tbaa !20
  %21 = icmp ult i16 %20, 17
  br i1 %21, label %22, label %asm_fuseabase.exit

22:                                               ; preds = %19
  %23 = getelementptr inbounds nuw i8, ptr %0, i64 248
  %24 = load i32, ptr %23, align 8, !tbaa !76
  %25 = icmp eq i32 %24, -1
  br i1 %25, label %asm_fuseabase.exit, label %26

26:                                               ; preds = %22
  %27 = zext i16 %13 to i32
  %28 = getelementptr i8, ptr %0, i64 200
  %.val26.i = load i32, ptr %28, align 8, !tbaa !69
  %29 = add nuw nsw i32 %27, 31
  %30 = icmp ugt i32 %.val26.i, %29
  br i1 %30, label %asm_fuseabase.exit, label %.preheader.i.i

.preheader.i.i:                                   ; preds = %26
  %31 = add nsw i32 %.val26.i, -1
  %32 = icmp ugt i32 %31, %27
  br i1 %32, label %.lr.ph.i.i, label %.thread.sink.split.i

.lr.ph.i.i:                                       ; preds = %.preheader.i.i
  %invariant.gep.i.i = getelementptr inbounds nuw i8, ptr %6, i64 5
  br label %.lr.ph.split.us.split.us.i.i

.lr.ph.split.us.split.us.i.i:                     ; preds = %37, %.lr.ph.i.i
  %33 = phi i32 [ %38, %37 ], [ %31, %.lr.ph.i.i ]
  %34 = zext i32 %33 to i64
  %gep.us.i.i = getelementptr inbounds nuw %union.IRIns, ptr %invariant.gep.i.i, i64 %34
  %35 = load i8, ptr %gep.us.i.i, align 1, !tbaa !20
  %36 = icmp eq i8 %35, 59
  br i1 %36, label %asm_fuseabase.exit, label %37

37:                                               ; preds = %.lr.ph.split.us.split.us.i.i
  %38 = add i32 %33, -1
  %39 = icmp ugt i32 %38, %27
  br i1 %39, label %.lr.ph.split.us.split.us.i.i, label %.thread.sink.split.i, !llvm.loop !178

40:                                               ; preds = %3
  %41 = getelementptr inbounds nuw i8, ptr %8, i64 2
  %42 = load i16, ptr %41, align 2, !tbaa !20
  %43 = icmp sgt i16 %42, -1
  br i1 %43, label %44, label %asm_fuseabase.exit

44:                                               ; preds = %40
  %45 = zext nneg i16 %42 to i64
  %46 = getelementptr inbounds nuw %union.IRIns, ptr %6, i64 %45
  %47 = getelementptr inbounds nuw i8, ptr %46, i64 5
  %48 = load i8, ptr %47, align 1, !tbaa !20
  %49 = icmp eq i8 %48, 23
  br i1 %49, label %50, label %52

50:                                               ; preds = %44
  %51 = load i32, ptr %46, align 8, !tbaa !20
  br label %.thread.sink.split.i

52:                                               ; preds = %44
  %53 = getelementptr inbounds nuw i8, ptr %46, i64 8
  %54 = load i64, ptr %53, align 8, !tbaa !20
  %55 = trunc i64 %54 to i32
  br label %.thread.sink.split.i

.thread.sink.split.i:                             ; preds = %37, %52, %50, %.preheader.i.i
  %.sink.i = phi i32 [ 64, %.preheader.i.i ], [ %51, %50 ], [ %55, %52 ], [ 64, %37 ]
  store i32 %.sink.i, ptr %9, align 8, !tbaa !131
  %56 = load i16, ptr %8, align 8, !tbaa !20
  %.pre20 = zext i16 %56 to i64
  br label %asm_fuseabase.exit

asm_fuseabase.exit:                               ; preds = %.lr.ph.split.us.split.us.i.i, %3, %12, %19, %22, %26, %40, %.thread.sink.split.i
  %.pre-phi = phi i64 [ %7, %3 ], [ %7, %12 ], [ %7, %19 ], [ %7, %22 ], [ %7, %26 ], [ %7, %40 ], [ %.pre20, %.thread.sink.split.i ], [ %7, %.lr.ph.split.us.split.us.i.i ]
  %.1.i.in = phi i16 [ %4, %3 ], [ %4, %12 ], [ %4, %19 ], [ %4, %22 ], [ %4, %26 ], [ %4, %40 ], [ %56, %.thread.sink.split.i ], [ %4, %.lr.ph.split.us.split.us.i.i ]
  %57 = getelementptr inbounds nuw %union.IRIns, ptr %6, i64 %.pre-phi
  %58 = getelementptr inbounds nuw i8, ptr %57, i64 6
  %59 = load i8, ptr %58, align 2, !tbaa !20
  %60 = zext nneg i8 %59 to i32
  %.not.i = icmp sgt i8 %59, -1
  br i1 %.not.i, label %ra_alloc1.exit, label %61

61:                                               ; preds = %asm_fuseabase.exit
  %.1.i = zext i16 %.1.i.in to i32
  %62 = tail call fastcc i32 @ra_allocref(ptr noundef nonnull %0, i32 noundef %.1.i, i32 noundef %2)
  br label %ra_alloc1.exit

ra_alloc1.exit:                                   ; preds = %asm_fuseabase.exit, %61
  %.0.i = phi i32 [ %62, %61 ], [ %60, %asm_fuseabase.exit ]
  %63 = shl nuw i32 1, %.0.i
  %64 = xor i32 %63, -1
  %65 = getelementptr inbounds nuw i8, ptr %0, i64 176
  %66 = load i32, ptr %65, align 8, !tbaa !80
  %67 = and i32 %66, %64
  store i32 %67, ptr %65, align 8, !tbaa !80
  %68 = trunc nuw i32 %.0.i to i8
  %69 = getelementptr inbounds nuw i8, ptr %0, i64 164
  store i8 %68, ptr %69, align 4, !tbaa !67
  %70 = getelementptr inbounds nuw i8, ptr %1, i64 2
  %71 = load i16, ptr %70, align 2, !tbaa !20
  %72 = icmp sgt i16 %71, -1
  br i1 %72, label %73, label %81

73:                                               ; preds = %ra_alloc1.exit
  %74 = load ptr, ptr %5, align 8, !tbaa !68
  %75 = zext nneg i16 %71 to i64
  %76 = getelementptr inbounds nuw %union.IRIns, ptr %74, i64 %75
  %77 = load i32, ptr %76, align 8, !tbaa !20
  %78 = shl nsw i32 %77, 3
  %79 = load i32, ptr %9, align 8, !tbaa !131
  %80 = add nsw i32 %79, %78
  store i32 %80, ptr %9, align 8, !tbaa !131
  br label %99

81:                                               ; preds = %ra_alloc1.exit
  %82 = getelementptr inbounds nuw i8, ptr %0, i64 166
  store i8 -64, ptr %82, align 2, !tbaa !133
  %83 = load i16, ptr %70, align 2, !tbaa !20
  %84 = load ptr, ptr %5, align 8, !tbaa !68
  %85 = zext i16 %83 to i64
  %86 = getelementptr inbounds nuw %union.IRIns, ptr %84, i64 %85
  %87 = getelementptr inbounds nuw i8, ptr %86, i64 6
  %88 = load i8, ptr %87, align 2, !tbaa !20
  %89 = zext nneg i8 %88 to i32
  %.not.i17 = icmp sgt i8 %88, -1
  br i1 %.not.i17, label %ra_alloc1.exit19, label %90

90:                                               ; preds = %81
  %91 = zext i16 %83 to i32
  %92 = and i32 %2, %64
  %93 = tail call fastcc i32 @ra_allocref(ptr noundef nonnull %0, i32 noundef %91, i32 noundef %92)
  %.pre = load i32, ptr %65, align 8, !tbaa !80
  br label %ra_alloc1.exit19

ra_alloc1.exit19:                                 ; preds = %81, %90
  %94 = phi i32 [ %.pre, %90 ], [ %67, %81 ]
  %.0.i18 = phi i32 [ %93, %90 ], [ %89, %81 ]
  %95 = shl nuw i32 1, %.0.i18
  %96 = xor i32 %95, -1
  %97 = and i32 %94, %96
  store i32 %97, ptr %65, align 8, !tbaa !80
  %98 = trunc nuw i32 %.0.i18 to i8
  br label %99

99:                                               ; preds = %ra_alloc1.exit19, %73
  %.sink = phi i8 [ %98, %ra_alloc1.exit19 ], [ -128, %73 ]
  %100 = getelementptr inbounds nuw i8, ptr %0, i64 165
  store i8 %.sink, ptr %100, align 1, !tbaa !132
  ret void
}